; ModuleID = '3/82.c'
source_filename = "3/82.c"
target datalayout = "e-m:e-p270:32:32-p271:32:32-p272:64:64-i64:64-f80:128-n8:16:32:64-S128"
target triple = "x86_64-pc-linux-gnu"

@.str = private unnamed_addr constant [5 x i8] c"%d%d\00", align 1
@.str.1 = private unnamed_addr constant [3 x i8] c"%d\00", align 1
@.str.2 = private unnamed_addr constant [4 x i8] c"yes\00", align 1
@.str.3 = private unnamed_addr constant [3 x i8] c"no\00", align 1

; Function Attrs: noinline nounwind uwtable
define dso_local i32 @main(i32 %0, i8** %1) #0 {
  %3 = alloca i32, align 4
  %4 = alloca i32, align 4
  %5 = alloca i8**, align 8
  %6 = alloca i32, align 4
  %7 = alloca i32, align 4
  %8 = alloca i32, align 4
  %9 = alloca [1000 x i32], align 16
  %10 = alloca i32, align 4
  %11 = alloca i32, align 4
  %12 = alloca i32, align 4
  store i32 0, i32* %3, align 4
  store i32 %0, i32* %4, align 4
  store i8** %1, i8*** %5, align 8
  store i32 0, i32* %12, align 4
  %13 = call i32 (i8*, ...) @__isoc99_scanf(i8* getelementptr inbounds ([5 x i8], [5 x i8]* @.str, i64 0, i64 0), i32* %6, i32* %7)
  store i32 0, i32* %8, align 4
  br label %14

14:                                               ; preds = %23, %2
  %15 = load i32, i32* %8, align 4
  %16 = load i32, i32* %6, align 4
  %17 = icmp slt i32 %15, %16
  br i1 %17, label %18, label %26

18:                                               ; preds = %14
  %19 = load i32, i32* %8, align 4
  %20 = sext i32 %19 to i64
  %21 = getelementptr inbounds [1000 x i32], [1000 x i32]* %9, i64 0, i64 %20
  %22 = call i32 (i8*, ...) @__isoc99_scanf(i8* getelementptr inbounds ([3 x i8], [3 x i8]* @.str.1, i64 0, i64 0), i32* %21)
  br label %23

23:                                               ; preds = %18
  %24 = load i32, i32* %8, align 4
  %25 = add nsw i32 %24, 1
  store i32 %25, i32* %8, align 4
  br label %14

26:                                               ; preds = %14
  store i32 0, i32* %8, align 4
  br label %27

27:                                               ; preds = %60, %26
  %28 = load i32, i32* %8, align 4
  %29 = load i32, i32* %6, align 4
  %30 = icmp slt i32 %28, %29
  br i1 %30, label %31, label %63

31:                                               ; preds = %27
  %32 = load i32, i32* %7, align 4
  %33 = load i32, i32* %8, align 4
  %34 = sext i32 %33 to i64
  %35 = getelementptr inbounds [1000 x i32], [1000 x i32]* %9, i64 0, i64 %34
  %36 = load i32, i32* %35, align 4
  %37 = sub nsw i32 %32, %36
  store i32 %37, i32* %10, align 4
  store i32 0, i32* %11, align 4
  br label %38

38:                                               ; preds = %56, %31
  %39 = load i32, i32* %11, align 4
  %40 = load i32, i32* %6, align 4
  %41 = icmp slt i32 %39, %40
  br i1 %41, label %42, label %59

42:                                               ; preds = %38
  %43 = load i32, i32* %11, align 4
  %44 = load i32, i32* %8, align 4
  %45 = icmp eq i32 %43, %44
  br i1 %45, label %46, label %47

46:                                               ; preds = %42
  br label %56

47:                                               ; preds = %42
  %48 = load i32, i32* %11, align 4
  %49 = sext i32 %48 to i64
  %50 = getelementptr inbounds [1000 x i32], [1000 x i32]* %9, i64 0, i64 %49
  %51 = load i32, i32* %50, align 4
  %52 = load i32, i32* %10, align 4
  %53 = icmp eq i32 %51, %52
  br i1 %53, label %54, label %55

54:                                               ; preds = %47
  store i32 1, i32* %12, align 4
  br label %55

55:                                               ; preds = %54, %47
  br label %56

56:                                               ; preds = %55, %46
  %57 = load i32, i32* %11, align 4
  %58 = add nsw i32 %57, 1
  store i32 %58, i32* %11, align 4
  br label %38

59:                                               ; preds = %38
  br label %60

60:                                               ; preds = %59
  %61 = load i32, i32* %8, align 4
  %62 = add nsw i32 %61, 1
  store i32 %62, i32* %8, align 4
  br label %27

63:                                               ; preds = %27
  %64 = load i32, i32* %12, align 4
  %65 = icmp eq i32 %64, 1
  br i1 %65, label %66, label %68

66:                                               ; preds = %63
  %67 = call i32 (i8*, ...) @printf(i8* getelementptr inbounds ([4 x i8], [4 x i8]* @.str.2, i64 0, i64 0))
  br label %70

68:                                               ; preds = %63
  %69 = call i32 (i8*, ...) @printf(i8* getelementptr inbounds ([3 x i8], [3 x i8]* @.str.3, i64 0, i64 0))
  br label %70

70:                                               ; preds = %68, %66
  ret i32 0
}

declare dso_local i32 @__isoc99_scanf(i8*, ...) #1

declare dso_local i32 @printf(i8*, ...) #1


!llvm.module.flags = !{!0}
!llvm.ident = !{!1}

!0 = !{i32 1, !"wchar_size", i32 4}
!1 = !{!"clang version 10.0.0-4ubuntu1 "}
